target datalayout = "e-m:e-p270:32:32-p271:32:32-p272:64:64-i64:64-i128:128-f80:128-n8:16:32:64-S128"
target triple = "x86_64-pc-linux-gnu"

%struct.VP8LBitWriter = type { i64, i32, ptr, ptr, ptr, i32 }

; Function Attrs: nounwind uwtable
define hidden void @VP8LBitWriterSwap(ptr noundef %0, ptr noundef %1) #0 {
  %3 = alloca ptr, align 8
  %4 = alloca ptr, align 8
  %5 = alloca %struct.VP8LBitWriter, align 8
  store ptr %0, ptr %3, align 8, !tbaa !27
  store ptr %1, ptr %4, align 8, !tbaa !27
  call void @llvm.lifetime.start.p0(i64 48, ptr %5) #6
  %6 = load ptr, ptr %3, align 8, !tbaa !27
  call void @llvm.memcpy.p0.p0.i64(ptr align 8 %5, ptr align 8 %6, i64 48, i1 false), !tbaa.struct !35
  %7 = load ptr, ptr %3, align 8, !tbaa !27
  %8 = load ptr, ptr %4, align 8, !tbaa !27
  call void @llvm.memcpy.p0.p0.i64(ptr align 8 %7, ptr align 8 %8, i64 48, i1 false), !tbaa.struct !35
  %9 = load ptr, ptr %4, align 8, !tbaa !27
  call void @llvm.memcpy.p0.p0.i64(ptr align 8 %9, ptr align 8 %5, i64 48, i1 false), !tbaa.struct !35
  call void @llvm.lifetime.end.p0(i64 48, ptr %5) #6
  ret void
}