; Function Attrs: mustprogress nofree norecurse nosync nounwind willreturn memory(argmem: readwrite) uwtable
define hidden void @VP8LBitWriterSwap(ptr noundef captures(none) %0, ptr noundef captures(none) %1) local_unnamed_addr #5 {
  %3 = alloca %struct.VP8LBitWriter, align 8
  call void @llvm.lifetime.start.p0(i64 48, ptr nonnull %3)
  call void @llvm.memcpy.p0.p0.i64(ptr noundef nonnull align 8 dereferenceable(48) %3, ptr noundef nonnull align 8 dereferenceable(48) %0, i64 48, i1 false), !tbaa.struct !29
  tail call void @llvm.memcpy.p0.p0.i64(ptr noundef nonnull align 8 dereferenceable(48) %0, ptr noundef nonnull align 8 dereferenceable(48) %1, i64 48, i1 false), !tbaa.struct !29
  call void @llvm.memcpy.p0.p0.i64(ptr noundef nonnull align 8 dereferenceable(48) %1, ptr noundef nonnull align 8 dereferenceable(48) %3, i64 48, i1 false), !tbaa.struct !29
  call void @llvm.lifetime.end.p0(i64 48, ptr nonnull %3)
  ret void
}